target datalayout = "e-m:e-p270:32:32-p271:32:32-p272:64:64-i64:64-i128:128-f80:128-n8:16:32:64-S128"
target triple = "x86_64-pc-linux-gnu"

%struct.cf_callback_data_t = type { ptr, ptr }
%struct._GList = type { ptr, ptr, ptr }
%struct._capture_file = type { ptr, i32, ptr, ptr, i8, i8, i8, i64, i16, i32, i32, i32, ptr, i32, i64, i32, i32, i32, i32, i8, i32, %struct.nstime_t, i32, ptr, ptr, ptr, i8, i8, i32, ptr, i8, i8, i8, i8, i8, i32, i32, i8, ptr, i32, i32, i8, %struct.packet_provider_data, i32, i32, %struct.epan_column_info, ptr, ptr, ptr, %struct.wtap_rec, %struct.Buffer, ptr, i64, i32 }
%struct.nstime_t = type { i64, i32 }
%struct.packet_provider_data = type { ptr, ptr, ptr, ptr, ptr, ptr }
%struct.epan_column_info = type { ptr, i32, ptr, ptr, ptr, %struct.col_expr_t, i8, ptr }
%struct.col_expr_t = type { ptr, ptr }
%struct.wtap_rec = type { i32, i32, i32, %struct.nstime_t, i32, %struct.nstime_t, i8, %union.anon, ptr, i8, %struct.Buffer, %struct.Buffer }
%union.anon = type { %struct.wtap_packet_header }
%struct.wtap_packet_header = type { i32, i32, i32, i32, %union.wtap_pseudo_header }
%union.wtap_pseudo_header = type { %struct.erf_mc_phdr }
%struct.erf_mc_phdr = type { %struct.erf_phdr, [16 x %struct.erf_ehdr], %union.anon.1 }
%struct.erf_phdr = type { i64, i8, i8, i16, i16, i16 }
%struct.erf_ehdr = type { i64 }
%union.anon.1 = type { i32 }
%struct.Buffer = type { ptr, i64, i64, i64 }

@cf_callbacks = internal global ptr null, align 8

; Function Attrs: null_pointer_is_valid sspstrong uwtable
define hidden void @cf_unselect_packet(ptr noundef %0) #1 {
  %2 = alloca ptr, align 8
  %3 = alloca ptr, align 8
  store ptr %0, ptr %2, align 8
  call void @llvm.lifetime.start.p0(i64 8, ptr %3) #19
  %4 = load ptr, ptr %2, align 8
  %5 = getelementptr inbounds nuw %struct._capture_file, ptr %4, i32 0, i32 47
  %6 = load ptr, ptr %5, align 8
  store ptr %6, ptr %3, align 8
  %7 = load ptr, ptr %2, align 8
  %8 = getelementptr inbounds nuw %struct._capture_file, ptr %7, i32 0, i32 47
  store ptr null, ptr %8, align 8
  %9 = load ptr, ptr %2, align 8
  %10 = getelementptr inbounds nuw %struct._capture_file, ptr %9, i32 0, i32 46
  store ptr null, ptr %10, align 8
  %11 = load ptr, ptr %3, align 8
  %12 = icmp ne ptr %11, null
  br i1 %12, label %13, label %15

13:                                               ; preds = %1
  %14 = load ptr, ptr %3, align 8
  call void @epan_dissect_free(ptr noundef %14)
  br label %15

15:                                               ; preds = %13, %1
  call void @llvm.lifetime.end.p0(i64 8, ptr %3) #19
  ret void
}

; Function Attrs: null_pointer_is_valid sspstrong uwtable
define internal void @cf_callback_invoke(i32 noundef %0, ptr noundef %1) #1 {
  %3 = alloca i32, align 4
  %4 = alloca ptr, align 8
  %5 = alloca ptr, align 8
  %6 = alloca ptr, align 8
  store i32 %0, ptr %3, align 4
  store ptr %1, ptr %4, align 8
  call void @llvm.lifetime.start.p0(i64 8, ptr %5) #19
  call void @llvm.lifetime.start.p0(i64 8, ptr %6) #19
  %7 = load ptr, ptr @cf_callbacks, align 8
  store ptr %7, ptr %6, align 8
  br label %8

8:                                                ; preds = %2
  br label %9

9:                                                ; preds = %8
  br label %10

10:                                               ; preds = %9
  br label %11

11:                                               ; preds = %33, %10
  %12 = load ptr, ptr %6, align 8
  %13 = icmp ne ptr %12, null
  br i1 %13, label %14, label %35

14:                                               ; preds = %11
  %15 = load ptr, ptr %6, align 8
  %16 = getelementptr inbounds nuw %struct._GList, ptr %15, i32 0, i32 0
  %17 = load ptr, ptr %16, align 8
  store ptr %17, ptr %5, align 8
  %18 = load ptr, ptr %5, align 8
  %19 = getelementptr inbounds nuw %struct.cf_callback_data_t, ptr %18, i32 0, i32 0
  %20 = load ptr, ptr %19, align 8
  %21 = load i32, ptr %3, align 4
  %22 = load ptr, ptr %4, align 8
  %23 = load ptr, ptr %5, align 8
  %24 = getelementptr inbounds nuw %struct.cf_callback_data_t, ptr %23, i32 0, i32 1
  %25 = load ptr, ptr %24, align 8
  call void %20(i32 noundef %21, ptr noundef %22, ptr noundef %25)
  %26 = load ptr, ptr %6, align 8
  %27 = icmp ne ptr %26, null
  br i1 %27, label %28, label %32

28:                                               ; preds = %14
  %29 = load ptr, ptr %6, align 8
  %30 = getelementptr inbounds nuw %struct._GList, ptr %29, i32 0, i32 1
  %31 = load ptr, ptr %30, align 8
  br label %33

32:                                               ; preds = %14
  br label %33

33:                                               ; preds = %32, %28
  %34 = phi ptr [ %31, %28 ], [ null, %32 ]
  store ptr %34, ptr %6, align 8
  br label %11, !llvm.loop !10

35:                                               ; preds = %11
  call void @llvm.lifetime.end.p0(i64 8, ptr %6) #19
  call void @llvm.lifetime.end.p0(i64 8, ptr %5) #19
  ret void
}

; Function Attrs: null_pointer_is_valid sspstrong uwtable
define hidden void @cf_close(ptr noundef %0) #1 {
  %2 = alloca ptr, align 8
  store ptr %0, ptr %2, align 8
  %3 = load ptr, ptr %2, align 8
  %4 = getelementptr inbounds nuw %struct._capture_file, ptr %3, i32 0, i32 6
  store i8 0, ptr %4, align 2
  %5 = load ptr, ptr %2, align 8
  %6 = getelementptr inbounds nuw %struct._capture_file, ptr %5, i32 0, i32 1
  %7 = load i32, ptr %6, align 8
  %8 = icmp eq i32 %7, 0
  br i1 %8, label %14, label %9

9:                                                ; preds = %1
  %10 = load ptr, ptr %2, align 8
  %11 = getelementptr inbounds nuw %struct._capture_file, ptr %10, i32 0, i32 1
  %12 = load i32, ptr %11, align 8
  %13 = icmp eq i32 %12, 1
  br i1 %13, label %14, label %15

14:                                               ; preds = %9, %1
  br label %130

15:                                               ; preds = %9
  br label %16

16:                                               ; preds = %15
  br label %17

17:                                               ; preds = %16
  br label %18

18:                                               ; preds = %17
  br label %19

19:                                               ; preds = %18
  %20 = load ptr, ptr %2, align 8
  call void @cf_callback_invoke(i32 noundef 1, ptr noundef %20)
  call void @color_filters_cleanup()
  %21 = load ptr, ptr %2, align 8
  %22 = getelementptr inbounds nuw %struct._capture_file, ptr %21, i32 0, i32 42
  %23 = getelementptr inbounds nuw %struct.packet_provider_data, ptr %22, i32 0, i32 0
  %24 = load ptr, ptr %23, align 8
  %25 = icmp ne ptr %24, null
  br i1 %25, label %26, label %34

26:                                               ; preds = %19
  %27 = load ptr, ptr %2, align 8
  %28 = getelementptr inbounds nuw %struct._capture_file, ptr %27, i32 0, i32 42
  %29 = getelementptr inbounds nuw %struct.packet_provider_data, ptr %28, i32 0, i32 0
  %30 = load ptr, ptr %29, align 8
  call void @wtap_close(ptr noundef %30)
  %31 = load ptr, ptr %2, align 8
  %32 = getelementptr inbounds nuw %struct._capture_file, ptr %31, i32 0, i32 42
  %33 = getelementptr inbounds nuw %struct.packet_provider_data, ptr %32, i32 0, i32 0
  store ptr null, ptr %33, align 8
  br label %34

34:                                               ; preds = %26, %19
  %35 = load ptr, ptr %2, align 8
  %36 = getelementptr inbounds nuw %struct._capture_file, ptr %35, i32 0, i32 2
  %37 = load ptr, ptr %36, align 8
  %38 = icmp ne ptr %37, null
  br i1 %38, label %39, label %55

39:                                               ; preds = %34
  %40 = load ptr, ptr %2, align 8
  %41 = getelementptr inbounds nuw %struct._capture_file, ptr %40, i32 0, i32 4
  %42 = load i8, ptr %41, align 8, !range !8, !noundef !9
  %43 = trunc i8 %42 to i1
  br i1 %43, label %44, label %49

44:                                               ; preds = %39
  %45 = load ptr, ptr %2, align 8
  %46 = getelementptr inbounds nuw %struct._capture_file, ptr %45, i32 0, i32 2
  %47 = load ptr, ptr %46, align 8
  %48 = call i32 @unlink(ptr noundef %47) #19
  br label %49

49:                                               ; preds = %44, %39
  %50 = load ptr, ptr %2, align 8
  %51 = getelementptr inbounds nuw %struct._capture_file, ptr %50, i32 0, i32 2
  %52 = load ptr, ptr %51, align 8
  call void @g_free(ptr noundef %52)
  %53 = load ptr, ptr %2, align 8
  %54 = getelementptr inbounds nuw %struct._capture_file, ptr %53, i32 0, i32 2
  store ptr null, ptr %54, align 8
  br label %55

55:                                               ; preds = %49, %34
  %56 = load ptr, ptr %2, align 8
  %57 = getelementptr inbounds nuw %struct._capture_file, ptr %56, i32 0, i32 5
  store i8 0, ptr %57, align 1
  %58 = load ptr, ptr %2, align 8
  %59 = getelementptr inbounds nuw %struct._capture_file, ptr %58, i32 0, i32 9
  store i32 0, ptr %59, align 4
  %60 = load ptr, ptr %2, align 8
  %61 = getelementptr inbounds nuw %struct._capture_file, ptr %60, i32 0, i32 49
  call void @wtap_rec_cleanup(ptr noundef %61)
  call void @packet_list_freeze()
  call void @packet_list_clear()
  call void @packet_list_thaw()
  %62 = load ptr, ptr %2, align 8
  %63 = getelementptr inbounds nuw %struct._capture_file, ptr %62, i32 0, i32 23
  %64 = load ptr, ptr %63, align 8
  call void @dfilter_free(ptr noundef %64)
  %65 = load ptr, ptr %2, align 8
  %66 = getelementptr inbounds nuw %struct._capture_file, ptr %65, i32 0, i32 23
  store ptr null, ptr %66, align 8
  %67 = load ptr, ptr %2, align 8
  %68 = getelementptr inbounds nuw %struct._capture_file, ptr %67, i32 0, i32 42
  %69 = getelementptr inbounds nuw %struct.packet_provider_data, ptr %68, i32 0, i32 4
  %70 = load ptr, ptr %69, align 8
  %71 = icmp ne ptr %70, null
  br i1 %71, label %72, label %80

72:                                               ; preds = %55
  %73 = load ptr, ptr %2, align 8
  %74 = getelementptr inbounds nuw %struct._capture_file, ptr %73, i32 0, i32 42
  %75 = getelementptr inbounds nuw %struct.packet_provider_data, ptr %74, i32 0, i32 4
  %76 = load ptr, ptr %75, align 8
  call void @free_frame_data_sequence(ptr noundef %76)
  %77 = load ptr, ptr %2, align 8
  %78 = getelementptr inbounds nuw %struct._capture_file, ptr %77, i32 0, i32 42
  %79 = getelementptr inbounds nuw %struct.packet_provider_data, ptr %78, i32 0, i32 4
  store ptr null, ptr %79, align 8
  br label %80

80:                                               ; preds = %72, %55
  %81 = load ptr, ptr %2, align 8
  %82 = getelementptr inbounds nuw %struct._capture_file, ptr %81, i32 0, i32 42
  %83 = getelementptr inbounds nuw %struct.packet_provider_data, ptr %82, i32 0, i32 5
  %84 = load ptr, ptr %83, align 8
  %85 = icmp ne ptr %84, null
  br i1 %85, label %86, label %94

86:                                               ; preds = %80
  %87 = load ptr, ptr %2, align 8
  %88 = getelementptr inbounds nuw %struct._capture_file, ptr %87, i32 0, i32 42
  %89 = getelementptr inbounds nuw %struct.packet_provider_data, ptr %88, i32 0, i32 5
  %90 = load ptr, ptr %89, align 8
  call void @g_tree_destroy(ptr noundef %90)
  %91 = load ptr, ptr %2, align 8
  %92 = getelementptr inbounds nuw %struct._capture_file, ptr %91, i32 0, i32 42
  %93 = getelementptr inbounds nuw %struct.packet_provider_data, ptr %92, i32 0, i32 5
  store ptr null, ptr %93, align 8
  br label %94

94:                                               ; preds = %86, %80
  %95 = load ptr, ptr %2, align 8
  call void @cf_unselect_packet(ptr noundef %95)
  %96 = load ptr, ptr %2, align 8
  %97 = getelementptr inbounds nuw %struct._capture_file, ptr %96, i32 0, i32 43
  store i32 0, ptr %97, align 8
  %98 = load ptr, ptr %2, align 8
  %99 = getelementptr inbounds nuw %struct._capture_file, ptr %98, i32 0, i32 44
  store i32 0, ptr %99, align 4
  %100 = load ptr, ptr %2, align 8
  %101 = getelementptr inbounds nuw %struct._capture_file, ptr %100, i32 0, i32 13
  store i32 0, ptr %101, align 8
  %102 = load ptr, ptr %2, align 8
  %103 = getelementptr inbounds nuw %struct._capture_file, ptr %102, i32 0, i32 46
  store ptr null, ptr %103, align 8
  %104 = load ptr, ptr %2, align 8
  %105 = getelementptr inbounds nuw %struct._capture_file, ptr %104, i32 0, i32 48
  store ptr null, ptr %105, align 8
  %106 = load ptr, ptr %2, align 8
  %107 = getelementptr inbounds nuw %struct._capture_file, ptr %106, i32 0, i32 12
  %108 = load ptr, ptr %107, align 8
  %109 = icmp ne ptr %108, null
  br i1 %109, label %110, label %117

110:                                              ; preds = %94
  %111 = load ptr, ptr %2, align 8
  %112 = getelementptr inbounds nuw %struct._capture_file, ptr %111, i32 0, i32 12
  %113 = load ptr, ptr %112, align 8
  %114 = call ptr @g_array_free(ptr noundef %113, i32 noundef 1)
  %115 = load ptr, ptr %2, align 8
  %116 = getelementptr inbounds nuw %struct._capture_file, ptr %115, i32 0, i32 12
  store ptr null, ptr %116, align 8
  br label %117

117:                                              ; preds = %110, %94
  %118 = load ptr, ptr %2, align 8
  %119 = getelementptr inbounds nuw %struct._capture_file, ptr %118, i32 0, i32 7
  store i64 0, ptr %119, align 8
  %120 = load ptr, ptr %2, align 8
  %121 = getelementptr inbounds nuw %struct._capture_file, ptr %120, i32 0, i32 21
  call void @nstime_set_zero(ptr noundef %121)
  call void @reset_tap_listeners()
  %122 = load ptr, ptr %2, align 8
  %123 = getelementptr inbounds nuw %struct._capture_file, ptr %122, i32 0, i32 0
  %124 = load ptr, ptr %123, align 8
  call void @epan_free(ptr noundef %124)
  %125 = load ptr, ptr %2, align 8
  %126 = getelementptr inbounds nuw %struct._capture_file, ptr %125, i32 0, i32 0
  store ptr null, ptr %126, align 8
  %127 = load ptr, ptr %2, align 8
  %128 = getelementptr inbounds nuw %struct._capture_file, ptr %127, i32 0, i32 1
  store i32 0, ptr %128, align 8
  %129 = load ptr, ptr %2, align 8
  call void @cf_callback_invoke(i32 noundef 2, ptr noundef %129)
  br label %130

130:                                              ; preds = %117, %14
  ret void
}