; Function Attrs: null_pointer_is_valid sspstrong uwtable
define hidden void @cf_close(ptr noundef initializes((34, 35)) %0) local_unnamed_addr #1 {
  %2 = getelementptr inbounds nuw i8, ptr %0, i64 34
  store i8 0, ptr %2, align 2
  %3 = getelementptr inbounds nuw i8, ptr %0, i64 8
  %4 = load i32, ptr %3, align 8
  %switch = icmp ult i32 %4, 2
  br i1 %switch, label %cf_callback_invoke.exit54, label %5

5:                                                ; preds = %1
  %.07.i = load ptr, ptr @cf_callbacks, align 8
  %.not8.i = icmp eq ptr %.07.i, null
  br i1 %.not8.i, label %cf_callback_invoke.exit, label %.lr.ph.i

.lr.ph.i:                                         ; preds = %5, %.lr.ph.i
  %.09.i = phi ptr [ %.0.i, %.lr.ph.i ], [ %.07.i, %5 ]
  %6 = load ptr, ptr %.09.i, align 8
  %7 = load ptr, ptr %6, align 8
  %8 = getelementptr inbounds nuw i8, ptr %6, i64 8
  %9 = load ptr, ptr %8, align 8
  tail call void %7(i32 noundef 1, ptr noundef %0, ptr noundef %9)
  %10 = getelementptr inbounds nuw i8, ptr %.09.i, i64 8
  %.0.i = load ptr, ptr %10, align 8
  %.not.i = icmp eq ptr %.0.i, null
  br i1 %.not.i, label %cf_callback_invoke.exit, label %.lr.ph.i, !llvm.loop !8

cf_callback_invoke.exit:                          ; preds = %.lr.ph.i, %5
  tail call void @color_filters_cleanup()
  %11 = getelementptr inbounds nuw i8, ptr %0, i64 224
  %12 = load ptr, ptr %11, align 8
  %.not = icmp eq ptr %12, null
  br i1 %.not, label %14, label %13

13:                                               ; preds = %cf_callback_invoke.exit
  tail call void @wtap_close(ptr noundef nonnull %12)
  store ptr null, ptr %11, align 8
  br label %14

14:                                               ; preds = %13, %cf_callback_invoke.exit
  %15 = getelementptr inbounds nuw i8, ptr %0, i64 16
  %16 = load ptr, ptr %15, align 8
  %.not43 = icmp eq ptr %16, null
  br i1 %.not43, label %25, label %17

17:                                               ; preds = %14
  %18 = getelementptr inbounds nuw i8, ptr %0, i64 32
  %19 = load i8, ptr %18, align 8, !range !9, !noundef !10
  %20 = trunc nuw i8 %19 to i1
  br i1 %20, label %21, label %23

21:                                               ; preds = %17
  %22 = tail call i32 @unlink(ptr noundef nonnull %16) #23
  %.pre = load ptr, ptr %15, align 8
  br label %23

23:                                               ; preds = %21, %17
  %24 = phi ptr [ %.pre, %21 ], [ %16, %17 ]
  tail call void @g_free(ptr noundef %24)
  store ptr null, ptr %15, align 8
  br label %25

25:                                               ; preds = %23, %14
  %26 = getelementptr inbounds nuw i8, ptr %0, i64 33
  store i8 0, ptr %26, align 1
  %27 = getelementptr inbounds nuw i8, ptr %0, i64 52
  store i32 0, ptr %27, align 4
  %28 = getelementptr inbounds nuw i8, ptr %0, i64 376
  tail call void @wtap_rec_cleanup(ptr noundef nonnull %28)
  tail call void @packet_list_freeze()
  tail call void @packet_list_clear()
  tail call void @packet_list_thaw()
  %29 = getelementptr inbounds nuw i8, ptr %0, i64 136
  %30 = load ptr, ptr %29, align 8
  tail call void @dfilter_free(ptr noundef %30)
  store ptr null, ptr %29, align 8
  %31 = getelementptr inbounds nuw i8, ptr %0, i64 256
  %32 = load ptr, ptr %31, align 8
  %.not44 = icmp eq ptr %32, null
  br i1 %.not44, label %34, label %33

33:                                               ; preds = %25
  tail call void @free_frame_data_sequence(ptr noundef nonnull %32)
  store ptr null, ptr %31, align 8
  br label %34

34:                                               ; preds = %33, %25
  %35 = getelementptr inbounds nuw i8, ptr %0, i64 264
  %36 = load ptr, ptr %35, align 8
  %.not45 = icmp eq ptr %36, null
  br i1 %.not45, label %38, label %37

37:                                               ; preds = %34
  tail call void @g_tree_destroy(ptr noundef nonnull %36)
  store ptr null, ptr %35, align 8
  br label %38

38:                                               ; preds = %37, %34
  %39 = getelementptr inbounds nuw i8, ptr %0, i64 360
  %40 = load ptr, ptr %39, align 8
  %41 = getelementptr inbounds nuw i8, ptr %0, i64 352
  %.not.i47 = icmp eq ptr %40, null
  tail call void @llvm.memset.p0.i64(ptr noundef nonnull align 8 dereferenceable(16) %41, i8 0, i64 16, i1 false)
  br i1 %.not.i47, label %cf_unselect_packet.exit, label %42

42:                                               ; preds = %38
  tail call void @epan_dissect_free(ptr noundef nonnull %40)
  br label %cf_unselect_packet.exit

cf_unselect_packet.exit:                          ; preds = %38, %42
  %43 = getelementptr inbounds nuw i8, ptr %0, i64 272
  store i32 0, ptr %43, align 8
  %44 = getelementptr inbounds nuw i8, ptr %0, i64 276
  store i32 0, ptr %44, align 4
  %45 = getelementptr inbounds nuw i8, ptr %0, i64 72
  store i32 0, ptr %45, align 8
  store ptr null, ptr %41, align 8
  %46 = getelementptr inbounds nuw i8, ptr %0, i64 368
  store ptr null, ptr %46, align 8
  %47 = getelementptr inbounds nuw i8, ptr %0, i64 64
  %48 = load ptr, ptr %47, align 8
  %.not46 = icmp eq ptr %48, null
  br i1 %.not46, label %51, label %49

49:                                               ; preds = %cf_unselect_packet.exit
  %50 = tail call ptr @g_array_free(ptr noundef nonnull %48, i32 noundef 1)
  store ptr null, ptr %47, align 8
  br label %51

51:                                               ; preds = %49, %cf_unselect_packet.exit
  %52 = getelementptr inbounds nuw i8, ptr %0, i64 40
  store i64 0, ptr %52, align 8
  %53 = getelementptr inbounds nuw i8, ptr %0, i64 112
  tail call void @nstime_set_zero(ptr noundef nonnull %53)
  tail call void @reset_tap_listeners()
  %54 = load ptr, ptr %0, align 8
  tail call void @epan_free(ptr noundef %54)
  store ptr null, ptr %0, align 8
  store i32 0, ptr %3, align 8
  %.07.i48 = load ptr, ptr @cf_callbacks, align 8
  %.not8.i49 = icmp eq ptr %.07.i48, null
  br i1 %.not8.i49, label %cf_callback_invoke.exit54, label %.lr.ph.i50

.lr.ph.i50:                                       ; preds = %51, %.lr.ph.i50
  %.09.i51 = phi ptr [ %.0.i52, %.lr.ph.i50 ], [ %.07.i48, %51 ]
  %55 = load ptr, ptr %.09.i51, align 8
  %56 = load ptr, ptr %55, align 8
  %57 = getelementptr inbounds nuw i8, ptr %55, i64 8
  %58 = load ptr, ptr %57, align 8
  tail call void %56(i32 noundef 2, ptr noundef %0, ptr noundef %58)
  %59 = getelementptr inbounds nuw i8, ptr %.09.i51, i64 8
  %.0.i52 = load ptr, ptr %59, align 8
  %.not.i53 = icmp eq ptr %.0.i52, null
  br i1 %.not.i53, label %cf_callback_invoke.exit54, label %.lr.ph.i50, !llvm.loop !8

cf_callback_invoke.exit54:                        ; preds = %.lr.ph.i50, %51, %1
  ret void
}